target datalayout = "e-m:e-p270:32:32-p271:32:32-p272:64:64-i64:64-i128:128-f80:128-n8:16:32:64-S128"
target triple = "x86_64-pc-linux-gnu"

%struct.AVFilterPad = type { ptr, i32, i32, %union.anon.1, ptr, ptr, ptr }
%union.anon.1 = type { ptr }
%struct.AVFilterContext = type { ptr, ptr, ptr, ptr, ptr, i32, ptr, ptr, i32, ptr, ptr, i32, i32, ptr, ptr, ptr, ptr, i32, ptr, i32, i32 }
%struct.ConcatContext = type { ptr, [2 x i32], i32, i32, i64, i32, i32, ptr }
%struct.AVFilterFormatsConfig = type { ptr, ptr, ptr, ptr, ptr }
%struct.AVFilterLink = type { ptr, ptr, ptr, ptr, i32, i32, i32, i32, %struct.AVRational, i32, i32, i32, %struct.AVChannelLayout, %struct.AVRational, ptr, i32, %struct.AVFilterFormatsConfig, %struct.AVFilterFormatsConfig }
%struct.AVChannelLayout = type { i32, i32, %union.anon.2, ptr }
%union.anon.2 = type { i64 }
%struct.AVRational = type { i32, i32 }
%struct.FilterLink = type { %struct.AVFilterLink, ptr, i64, i64, i32, i32, i64, i64, i64, i64, %struct.AVRational, ptr }

@.str.15 = private unnamed_addr constant [61 x i8] c"Video inputs have different frame rates, output will be VFR\0A\00", align 1
@.str.16 = private unnamed_addr constant [126 x i8] c"Input link %s parameters (size %dx%d, SAR %d:%d) do not match the corresponding output link %s parameters (%dx%d, SAR %d:%d)\0A\00", align 1

; Function Attrs: inlinehint nounwind uwtable
define internal i64 @av_make_q(i32 noundef %0, i32 noundef %1) #5 {
  %3 = alloca %struct.AVRational, align 4
  %4 = alloca i32, align 4
  %5 = alloca i32, align 4
  store i32 %0, ptr %4, align 4, !tbaa !24
  store i32 %1, ptr %5, align 4, !tbaa !24
  %6 = getelementptr inbounds nuw %struct.AVRational, ptr %3, i32 0, i32 0
  %7 = load i32, ptr %4, align 4, !tbaa !24
  store i32 %7, ptr %6, align 4, !tbaa !86
  %8 = getelementptr inbounds nuw %struct.AVRational, ptr %3, i32 0, i32 1
  %9 = load i32, ptr %5, align 4, !tbaa !24
  store i32 %9, ptr %8, align 4, !tbaa !87
  %10 = load i64, ptr %3, align 4
  ret i64 %10
}

; Function Attrs: inlinehint nounwind uwtable
define internal ptr @ff_filter_link(ptr noundef %0) #5 {
  %2 = alloca ptr, align 8
  store ptr %0, ptr %2, align 8, !tbaa !57
  %3 = load ptr, ptr %2, align 8, !tbaa !57
  ret ptr %3
}

; Function Attrs: nounwind uwtable
define internal i32 @config_output(ptr noundef %0) #1 {
  %2 = alloca i32, align 4
  %3 = alloca ptr, align 8
  %4 = alloca ptr, align 8
  %5 = alloca ptr, align 8
  %6 = alloca ptr, align 8
  %7 = alloca i32, align 4
  %8 = alloca i32, align 4
  %9 = alloca i32, align 4
  %10 = alloca ptr, align 8
  %11 = alloca ptr, align 8
  %12 = alloca %struct.AVRational, align 4
  %13 = alloca %struct.AVRational, align 4
  %14 = alloca i32, align 4
  store ptr %0, ptr %3, align 8, !tbaa !57
  call void @llvm.lifetime.start.p0(i64 8, ptr %4) #9
  %15 = load ptr, ptr %3, align 8, !tbaa !57
  %16 = call ptr @ff_filter_link(ptr noundef %15)
  store ptr %16, ptr %4, align 8, !tbaa !81
  call void @llvm.lifetime.start.p0(i64 8, ptr %5) #9
  %17 = load ptr, ptr %3, align 8, !tbaa !57
  %18 = getelementptr inbounds nuw %struct.AVFilterLink, ptr %17, i32 0, i32 0
  %19 = load ptr, ptr %18, align 8, !tbaa !83
  store ptr %19, ptr %5, align 8, !tbaa !4
  call void @llvm.lifetime.start.p0(i64 8, ptr %6) #9
  %20 = load ptr, ptr %5, align 8, !tbaa !4
  %21 = getelementptr inbounds nuw %struct.AVFilterContext, ptr %20, i32 0, i32 9
  %22 = load ptr, ptr %21, align 8, !tbaa !9
  store ptr %22, ptr %6, align 8, !tbaa !22
  call void @llvm.lifetime.start.p0(i64 4, ptr %7) #9
  %23 = load ptr, ptr %3, align 8, !tbaa !57
  %24 = getelementptr inbounds nuw %struct.AVFilterLink, ptr %23, i32 0, i32 1
  %25 = load ptr, ptr %24, align 8, !tbaa !84
  %26 = load ptr, ptr %3, align 8, !tbaa !57
  %27 = getelementptr inbounds nuw %struct.AVFilterLink, ptr %26, i32 0, i32 0
  %28 = load ptr, ptr %27, align 8, !tbaa !83
  %29 = getelementptr inbounds nuw %struct.AVFilterContext, ptr %28, i32 0, i32 6
  %30 = load ptr, ptr %29, align 8, !tbaa !85
  %31 = ptrtoint ptr %25 to i64
  %32 = ptrtoint ptr %30 to i64
  %33 = sub i64 %31, %32
  %34 = sdiv exact i64 %33, 48
  %35 = trunc i64 %34 to i32
  store i32 %35, ptr %7, align 4, !tbaa !24
  call void @llvm.lifetime.start.p0(i64 4, ptr %8) #9
  %36 = load i32, ptr %7, align 4, !tbaa !24
  store i32 %36, ptr %8, align 4, !tbaa !24
  call void @llvm.lifetime.start.p0(i64 4, ptr %9) #9
  call void @llvm.lifetime.start.p0(i64 8, ptr %10) #9
  %37 = load ptr, ptr %5, align 8, !tbaa !4
  %38 = getelementptr inbounds nuw %struct.AVFilterContext, ptr %37, i32 0, i32 4
  %39 = load ptr, ptr %38, align 8, !tbaa !61
  %40 = load i32, ptr %8, align 4, !tbaa !24
  %41 = zext i32 %40 to i64
  %42 = getelementptr inbounds nuw ptr, ptr %39, i64 %41
  %43 = load ptr, ptr %42, align 8, !tbaa !57
  store ptr %43, ptr %10, align 8, !tbaa !57
  call void @llvm.lifetime.start.p0(i64 8, ptr %11) #9
  %44 = load ptr, ptr %10, align 8, !tbaa !57
  %45 = call ptr @ff_filter_link(ptr noundef %44)
  store ptr %45, ptr %11, align 8, !tbaa !81
  %46 = load ptr, ptr %3, align 8, !tbaa !57
  %47 = getelementptr inbounds nuw %struct.AVFilterLink, ptr %46, i32 0, i32 13
  %48 = getelementptr inbounds nuw %struct.AVRational, ptr %12, i32 0, i32 0
  store i32 1, ptr %48, align 4, !tbaa !86
  %49 = getelementptr inbounds nuw %struct.AVRational, ptr %12, i32 0, i32 1
  store i32 1000000, ptr %49, align 4, !tbaa !87
  call void @llvm.memcpy.p0.p0.i64(ptr align 8 %47, ptr align 4 %12, i64 8, i1 false), !tbaa.struct !88
  %50 = load ptr, ptr %10, align 8, !tbaa !57
  %51 = getelementptr inbounds nuw %struct.AVFilterLink, ptr %50, i32 0, i32 6
  %52 = load i32, ptr %51, align 8, !tbaa !89
  %53 = load ptr, ptr %3, align 8, !tbaa !57
  %54 = getelementptr inbounds nuw %struct.AVFilterLink, ptr %53, i32 0, i32 6
  store i32 %52, ptr %54, align 8, !tbaa !89
  %55 = load ptr, ptr %10, align 8, !tbaa !57
  %56 = getelementptr inbounds nuw %struct.AVFilterLink, ptr %55, i32 0, i32 7
  %57 = load i32, ptr %56, align 4, !tbaa !90
  %58 = load ptr, ptr %3, align 8, !tbaa !57
  %59 = getelementptr inbounds nuw %struct.AVFilterLink, ptr %58, i32 0, i32 7
  store i32 %57, ptr %59, align 4, !tbaa !90
  %60 = load ptr, ptr %3, align 8, !tbaa !57
  %61 = getelementptr inbounds nuw %struct.AVFilterLink, ptr %60, i32 0, i32 8
  %62 = load ptr, ptr %10, align 8, !tbaa !57
  %63 = getelementptr inbounds nuw %struct.AVFilterLink, ptr %62, i32 0, i32 8
  call void @llvm.memcpy.p0.p0.i64(ptr align 8 %61, ptr align 8 %63, i64 8, i1 false), !tbaa.struct !88
  %64 = load ptr, ptr %10, align 8, !tbaa !57
  %65 = getelementptr inbounds nuw %struct.AVFilterLink, ptr %64, i32 0, i32 5
  %66 = load i32, ptr %65, align 4, !tbaa !91
  %67 = load ptr, ptr %3, align 8, !tbaa !57
  %68 = getelementptr inbounds nuw %struct.AVFilterLink, ptr %67, i32 0, i32 5
  store i32 %66, ptr %68, align 4, !tbaa !91
  %69 = load ptr, ptr %4, align 8, !tbaa !81
  %70 = getelementptr inbounds nuw %struct.FilterLink, ptr %69, i32 0, i32 10
  %71 = load ptr, ptr %11, align 8, !tbaa !81
  %72 = getelementptr inbounds nuw %struct.FilterLink, ptr %71, i32 0, i32 10
  call void @llvm.memcpy.p0.p0.i64(ptr align 8 %70, ptr align 8 %72, i64 8, i1 false), !tbaa.struct !88
  store i32 1, ptr %9, align 4, !tbaa !24
  br label %73

73:                                               ; preds = %120, %1
  %74 = load i32, ptr %9, align 4, !tbaa !24
  %75 = load ptr, ptr %6, align 8, !tbaa !22
  %76 = getelementptr inbounds nuw %struct.ConcatContext, ptr %75, i32 0, i32 2
  %77 = load i32, ptr %76, align 8, !tbaa !25
  %78 = icmp ult i32 %74, %77
  br i1 %78, label %79, label %123

79:                                               ; preds = %73
  %80 = load ptr, ptr %5, align 8, !tbaa !4
  %81 = getelementptr inbounds nuw %struct.AVFilterContext, ptr %80, i32 0, i32 4
  %82 = load ptr, ptr %81, align 8, !tbaa !61
  %83 = load i32, ptr %8, align 4, !tbaa !24
  %84 = load i32, ptr %9, align 4, !tbaa !24
  %85 = load ptr, ptr %5, align 8, !tbaa !4
  %86 = getelementptr inbounds nuw %struct.AVFilterContext, ptr %85, i32 0, i32 8
  %87 = load i32, ptr %86, align 8, !tbaa !42
  %88 = mul i32 %84, %87
  %89 = add i32 %83, %88
  %90 = zext i32 %89 to i64
  %91 = getelementptr inbounds nuw ptr, ptr %82, i64 %90
  %92 = load ptr, ptr %91, align 8, !tbaa !57
  store ptr %92, ptr %10, align 8, !tbaa !57
  %93 = load ptr, ptr %10, align 8, !tbaa !57
  %94 = call ptr @ff_filter_link(ptr noundef %93)
  store ptr %94, ptr %11, align 8, !tbaa !81
  %95 = load ptr, ptr %4, align 8, !tbaa !81
  %96 = getelementptr inbounds nuw %struct.FilterLink, ptr %95, i32 0, i32 10
  %97 = getelementptr inbounds nuw %struct.AVRational, ptr %96, i32 0, i32 0
  %98 = load i32, ptr %97, align 8, !tbaa !92
  %99 = load ptr, ptr %11, align 8, !tbaa !81
  %100 = getelementptr inbounds nuw %struct.FilterLink, ptr %99, i32 0, i32 10
  %101 = getelementptr inbounds nuw %struct.AVRational, ptr %100, i32 0, i32 0
  %102 = load i32, ptr %101, align 8, !tbaa !92
  %103 = icmp ne i32 %98, %102
  br i1 %103, label %114, label %104

104:                                              ; preds = %79
  %105 = load ptr, ptr %4, align 8, !tbaa !81
  %106 = getelementptr inbounds nuw %struct.FilterLink, ptr %105, i32 0, i32 10
  %107 = getelementptr inbounds nuw %struct.AVRational, ptr %106, i32 0, i32 1
  %108 = load i32, ptr %107, align 4, !tbaa !94
  %109 = load ptr, ptr %11, align 8, !tbaa !81
  %110 = getelementptr inbounds nuw %struct.FilterLink, ptr %109, i32 0, i32 10
  %111 = getelementptr inbounds nuw %struct.AVRational, ptr %110, i32 0, i32 1
  %112 = load i32, ptr %111, align 4, !tbaa !94
  %113 = icmp ne i32 %108, %112
  br i1 %113, label %114, label %119

114:                                              ; preds = %104, %79
  %115 = load ptr, ptr %5, align 8, !tbaa !4
  call void (ptr, i32, ptr, ...) @av_log(ptr noundef %115, i32 noundef 40, ptr noundef @.str.15)
  %116 = load ptr, ptr %4, align 8, !tbaa !81
  %117 = getelementptr inbounds nuw %struct.FilterLink, ptr %116, i32 0, i32 10
  call void @llvm.lifetime.start.p0(i64 8, ptr %13) #9
  %118 = call i64 @av_make_q(i32 noundef 1, i32 noundef 0)
  store i64 %118, ptr %13, align 4
  call void @llvm.memcpy.p0.p0.i64(ptr align 8 %117, ptr align 4 %13, i64 8, i1 false), !tbaa.struct !88
  call void @llvm.lifetime.end.p0(i64 8, ptr %13) #9
  br label %123

119:                                              ; preds = %104
  br label %120

120:                                              ; preds = %119
  %121 = load i32, ptr %9, align 4, !tbaa !24
  %122 = add i32 %121, 1
  store i32 %122, ptr %9, align 4, !tbaa !24
  br label %73, !llvm.loop !95

123:                                              ; preds = %114, %73
  store i32 1, ptr %9, align 4, !tbaa !24
  br label %124

124:                                              ; preds = %249, %123
  %125 = load i32, ptr %9, align 4, !tbaa !24
  %126 = load ptr, ptr %6, align 8, !tbaa !22
  %127 = getelementptr inbounds nuw %struct.ConcatContext, ptr %126, i32 0, i32 2
  %128 = load i32, ptr %127, align 8, !tbaa !25
  %129 = icmp ult i32 %125, %128
  br i1 %129, label %130, label %252

130:                                              ; preds = %124
  %131 = load ptr, ptr %5, align 8, !tbaa !4
  %132 = getelementptr inbounds nuw %struct.AVFilterContext, ptr %131, i32 0, i32 4
  %133 = load ptr, ptr %132, align 8, !tbaa !61
  %134 = load i32, ptr %8, align 4, !tbaa !24
  %135 = load i32, ptr %9, align 4, !tbaa !24
  %136 = load ptr, ptr %5, align 8, !tbaa !4
  %137 = getelementptr inbounds nuw %struct.AVFilterContext, ptr %136, i32 0, i32 8
  %138 = load i32, ptr %137, align 8, !tbaa !42
  %139 = mul i32 %135, %138
  %140 = add i32 %134, %139
  %141 = zext i32 %140 to i64
  %142 = getelementptr inbounds nuw ptr, ptr %133, i64 %141
  %143 = load ptr, ptr %142, align 8, !tbaa !57
  store ptr %143, ptr %10, align 8, !tbaa !57
  %144 = load ptr, ptr %3, align 8, !tbaa !57
  %145 = getelementptr inbounds nuw %struct.AVFilterLink, ptr %144, i32 0, i32 8
  %146 = getelementptr inbounds nuw %struct.AVRational, ptr %145, i32 0, i32 0
  %147 = load i32, ptr %146, align 8, !tbaa !96
  %148 = icmp ne i32 %147, 0
  br i1 %148, label %154, label %149

149:                                              ; preds = %130
  %150 = load ptr, ptr %3, align 8, !tbaa !57
  %151 = getelementptr inbounds nuw %struct.AVFilterLink, ptr %150, i32 0, i32 8
  %152 = load ptr, ptr %10, align 8, !tbaa !57
  %153 = getelementptr inbounds nuw %struct.AVFilterLink, ptr %152, i32 0, i32 8
  call void @llvm.memcpy.p0.p0.i64(ptr align 8 %151, ptr align 8 %153, i64 8, i1 false), !tbaa.struct !88
  br label %154

154:                                              ; preds = %149, %130
  %155 = load ptr, ptr %3, align 8, !tbaa !57
  %156 = getelementptr inbounds nuw %struct.AVFilterLink, ptr %155, i32 0, i32 6
  %157 = load i32, ptr %156, align 8, !tbaa !89
  %158 = load ptr, ptr %10, align 8, !tbaa !57
  %159 = getelementptr inbounds nuw %struct.AVFilterLink, ptr %158, i32 0, i32 6
  %160 = load i32, ptr %159, align 8, !tbaa !89
  %161 = icmp ne i32 %157, %160
  br i1 %161, label %196, label %162

162:                                              ; preds = %154
  %163 = load ptr, ptr %3, align 8, !tbaa !57
  %164 = getelementptr inbounds nuw %struct.AVFilterLink, ptr %163, i32 0, i32 7
  %165 = load i32, ptr %164, align 4, !tbaa !90
  %166 = load ptr, ptr %10, align 8, !tbaa !57
  %167 = getelementptr inbounds nuw %struct.AVFilterLink, ptr %166, i32 0, i32 7
  %168 = load i32, ptr %167, align 4, !tbaa !90
  %169 = icmp ne i32 %165, %168
  br i1 %169, label %196, label %170

170:                                              ; preds = %162
  %171 = load ptr, ptr %3, align 8, !tbaa !57
  %172 = getelementptr inbounds nuw %struct.AVFilterLink, ptr %171, i32 0, i32 8
  %173 = getelementptr inbounds nuw %struct.AVRational, ptr %172, i32 0, i32 0
  %174 = load i32, ptr %173, align 8, !tbaa !96
  %175 = load ptr, ptr %10, align 8, !tbaa !57
  %176 = getelementptr inbounds nuw %struct.AVFilterLink, ptr %175, i32 0, i32 8
  %177 = getelementptr inbounds nuw %struct.AVRational, ptr %176, i32 0, i32 0
  %178 = load i32, ptr %177, align 8, !tbaa !96
  %179 = icmp ne i32 %174, %178
  br i1 %179, label %180, label %186

180:                                              ; preds = %170
  %181 = load ptr, ptr %10, align 8, !tbaa !57
  %182 = getelementptr inbounds nuw %struct.AVFilterLink, ptr %181, i32 0, i32 8
  %183 = getelementptr inbounds nuw %struct.AVRational, ptr %182, i32 0, i32 0
  %184 = load i32, ptr %183, align 8, !tbaa !96
  %185 = icmp ne i32 %184, 0
  br i1 %185, label %196, label %186

186:                                              ; preds = %180, %170
  %187 = load ptr, ptr %3, align 8, !tbaa !57
  %188 = getelementptr inbounds nuw %struct.AVFilterLink, ptr %187, i32 0, i32 8
  %189 = getelementptr inbounds nuw %struct.AVRational, ptr %188, i32 0, i32 1
  %190 = load i32, ptr %189, align 4, !tbaa !97
  %191 = load ptr, ptr %10, align 8, !tbaa !57
  %192 = getelementptr inbounds nuw %struct.AVFilterLink, ptr %191, i32 0, i32 8
  %193 = getelementptr inbounds nuw %struct.AVRational, ptr %192, i32 0, i32 1
  %194 = load i32, ptr %193, align 4, !tbaa !97
  %195 = icmp ne i32 %190, %194
  br i1 %195, label %196, label %248

196:                                              ; preds = %186, %180, %162, %154
  %197 = load ptr, ptr %5, align 8, !tbaa !4
  %198 = load ptr, ptr %5, align 8, !tbaa !4
  %199 = getelementptr inbounds nuw %struct.AVFilterContext, ptr %198, i32 0, i32 3
  %200 = load ptr, ptr %199, align 8, !tbaa !80
  %201 = load i32, ptr %8, align 4, !tbaa !24
  %202 = zext i32 %201 to i64
  %203 = getelementptr inbounds nuw %struct.AVFilterPad, ptr %200, i64 %202
  %204 = getelementptr inbounds nuw %struct.AVFilterPad, ptr %203, i32 0, i32 0
  %205 = load ptr, ptr %204, align 8, !tbaa !32
  %206 = load ptr, ptr %10, align 8, !tbaa !57
  %207 = getelementptr inbounds nuw %struct.AVFilterLink, ptr %206, i32 0, i32 6
  %208 = load i32, ptr %207, align 8, !tbaa !89
  %209 = load ptr, ptr %10, align 8, !tbaa !57
  %210 = getelementptr inbounds nuw %struct.AVFilterLink, ptr %209, i32 0, i32 7
  %211 = load i32, ptr %210, align 4, !tbaa !90
  %212 = load ptr, ptr %10, align 8, !tbaa !57
  %213 = getelementptr inbounds nuw %struct.AVFilterLink, ptr %212, i32 0, i32 8
  %214 = getelementptr inbounds nuw %struct.AVRational, ptr %213, i32 0, i32 0
  %215 = load i32, ptr %214, align 8, !tbaa !96
  %216 = load ptr, ptr %10, align 8, !tbaa !57
  %217 = getelementptr inbounds nuw %struct.AVFilterLink, ptr %216, i32 0, i32 8
  %218 = getelementptr inbounds nuw %struct.AVRational, ptr %217, i32 0, i32 1
  %219 = load i32, ptr %218, align 4, !tbaa !97
  %220 = load ptr, ptr %5, align 8, !tbaa !4
  %221 = getelementptr inbounds nuw %struct.AVFilterContext, ptr %220, i32 0, i32 3
  %222 = load ptr, ptr %221, align 8, !tbaa !80
  %223 = load i32, ptr %7, align 4, !tbaa !24
  %224 = zext i32 %223 to i64
  %225 = getelementptr inbounds nuw %struct.AVFilterPad, ptr %222, i64 %224
  %226 = getelementptr inbounds nuw %struct.AVFilterPad, ptr %225, i32 0, i32 0
  %227 = load ptr, ptr %226, align 8, !tbaa !32
  %228 = load ptr, ptr %3, align 8, !tbaa !57
  %229 = getelementptr inbounds nuw %struct.AVFilterLink, ptr %228, i32 0, i32 6
  %230 = load i32, ptr %229, align 8, !tbaa !89
  %231 = load ptr, ptr %3, align 8, !tbaa !57
  %232 = getelementptr inbounds nuw %struct.AVFilterLink, ptr %231, i32 0, i32 7
  %233 = load i32, ptr %232, align 4, !tbaa !90
  %234 = load ptr, ptr %3, align 8, !tbaa !57
  %235 = getelementptr inbounds nuw %struct.AVFilterLink, ptr %234, i32 0, i32 8
  %236 = getelementptr inbounds nuw %struct.AVRational, ptr %235, i32 0, i32 0
  %237 = load i32, ptr %236, align 8, !tbaa !96
  %238 = load ptr, ptr %3, align 8, !tbaa !57
  %239 = getelementptr inbounds nuw %struct.AVFilterLink, ptr %238, i32 0, i32 8
  %240 = getelementptr inbounds nuw %struct.AVRational, ptr %239, i32 0, i32 1
  %241 = load i32, ptr %240, align 4, !tbaa !97
  call void (ptr, i32, ptr, ...) @av_log(ptr noundef %197, i32 noundef 16, ptr noundef @.str.16, ptr noundef %205, i32 noundef %208, i32 noundef %211, i32 noundef %215, i32 noundef %219, ptr noundef %227, i32 noundef %230, i32 noundef %233, i32 noundef %237, i32 noundef %241)
  %242 = load ptr, ptr %6, align 8, !tbaa !22
  %243 = getelementptr inbounds nuw %struct.ConcatContext, ptr %242, i32 0, i32 6
  %244 = load i32, ptr %243, align 4, !tbaa !98
  %245 = icmp ne i32 %244, 0
  br i1 %245, label %247, label %246

246:                                              ; preds = %196
  store i32 -22, ptr %2, align 4
  store i32 1, ptr %14, align 4
  br label %253

247:                                              ; preds = %196
  br label %248

248:                                              ; preds = %247, %186
  br label %249

249:                                              ; preds = %248
  %250 = load i32, ptr %9, align 4, !tbaa !24
  %251 = add i32 %250, 1
  store i32 %251, ptr %9, align 4, !tbaa !24
  br label %124, !llvm.loop !99

252:                                              ; preds = %124
  store i32 0, ptr %2, align 4
  store i32 1, ptr %14, align 4
  br label %253

253:                                              ; preds = %252, %246
  call void @llvm.lifetime.end.p0(i64 8, ptr %11) #9
  call void @llvm.lifetime.end.p0(i64 8, ptr %10) #9
  call void @llvm.lifetime.end.p0(i64 4, ptr %9) #9
  call void @llvm.lifetime.end.p0(i64 4, ptr %8) #9
  call void @llvm.lifetime.end.p0(i64 4, ptr %7) #9
  call void @llvm.lifetime.end.p0(i64 8, ptr %6) #9
  call void @llvm.lifetime.end.p0(i64 8, ptr %5) #9
  call void @llvm.lifetime.end.p0(i64 8, ptr %4) #9
  %254 = load i32, ptr %2, align 4
  ret i32 %254
}