; Function Attrs: nounwind uwtable
define internal range(i32 -22, 1) i32 @config_output(ptr noundef captures(none) initializes((36, 56), (96, 104), (264, 272)) %0) #1 {
  %2 = load ptr, ptr %0, align 8, !tbaa !73
  %3 = getelementptr inbounds nuw i8, ptr %2, i64 72
  %4 = load ptr, ptr %3, align 8, !tbaa !4
  %5 = getelementptr inbounds nuw i8, ptr %0, i64 8
  %6 = load ptr, ptr %5, align 8, !tbaa !74
  %7 = getelementptr inbounds nuw i8, ptr %2, i64 48
  %8 = load ptr, ptr %7, align 8, !tbaa !75
  %9 = ptrtoint ptr %6 to i64
  %10 = ptrtoint ptr %8 to i64
  %11 = sub i64 %9, %10
  %12 = sdiv exact i64 %11, 48
  %13 = trunc i64 %12 to i32
  %14 = getelementptr inbounds nuw i8, ptr %2, i64 32
  %15 = load ptr, ptr %14, align 8, !tbaa !50
  %16 = and i64 %12, 4294967295
  %17 = getelementptr inbounds nuw ptr, ptr %15, i64 %16
  %18 = load ptr, ptr %17, align 8, !tbaa !46
  %19 = getelementptr inbounds nuw i8, ptr %0, i64 96
  store i32 1, ptr %19, align 8, !tbaa !24
  %.sroa.2.0..sroa_idx = getelementptr inbounds nuw i8, ptr %0, i64 100
  store i32 1000000, ptr %.sroa.2.0..sroa_idx, align 4, !tbaa !24
  %20 = getelementptr inbounds nuw i8, ptr %18, i64 40
  %21 = load i32, ptr %20, align 8, !tbaa !76
  %22 = getelementptr inbounds nuw i8, ptr %0, i64 40
  store i32 %21, ptr %22, align 8, !tbaa !76
  %23 = getelementptr inbounds nuw i8, ptr %18, i64 44
  %24 = load i32, ptr %23, align 4, !tbaa !77
  %25 = getelementptr inbounds nuw i8, ptr %0, i64 44
  store i32 %24, ptr %25, align 4, !tbaa !77
  %26 = getelementptr inbounds nuw i8, ptr %0, i64 48
  %27 = getelementptr inbounds nuw i8, ptr %18, i64 48
  %28 = load i64, ptr %27, align 8
  store i64 %28, ptr %26, align 8
  %29 = getelementptr inbounds nuw i8, ptr %18, i64 36
  %30 = load i32, ptr %29, align 4, !tbaa !78
  %31 = getelementptr inbounds nuw i8, ptr %0, i64 36
  store i32 %30, ptr %31, align 4, !tbaa !78
  %32 = getelementptr inbounds nuw i8, ptr %0, i64 264
  %33 = getelementptr inbounds nuw i8, ptr %18, i64 264
  %34 = load i64, ptr %33, align 8
  store i64 %34, ptr %32, align 8
  %35 = getelementptr inbounds nuw i8, ptr %4, i64 16
  %36 = load i32, ptr %35, align 8, !tbaa !20
  %37 = icmp ugt i32 %36, 1
  %38 = trunc i64 %34 to i32
  %39 = lshr i64 %34, 32
  %40 = trunc nuw i64 %39 to i32
  br i1 %37, label %.lr.ph, label %._crit_edge

.lr.ph:                                           ; preds = %1
  %41 = load ptr, ptr %14, align 8, !tbaa !50
  %42 = getelementptr inbounds nuw i8, ptr %2, i64 64
  %43 = load i32, ptr %42, align 8, !tbaa !38
  %wide.trip.count = zext i32 %36 to i64
  br label %45

44:                                               ; preds = %54
  %indvars.iv.next = add nuw nsw i64 %indvars.iv, 1
  %exitcond.not = icmp eq i64 %indvars.iv.next, %wide.trip.count
  br i1 %exitcond.not, label %.loopexit, label %45, !llvm.loop !79

45:                                               ; preds = %.lr.ph, %44
  %indvars.iv = phi i64 [ 1, %.lr.ph ], [ %indvars.iv.next, %44 ]
  %46 = trunc nuw i64 %indvars.iv to i32
  %47 = mul i32 %43, %46
  %48 = add i32 %47, %13
  %49 = zext i32 %48 to i64
  %50 = getelementptr inbounds nuw ptr, ptr %41, i64 %49
  %51 = load ptr, ptr %50, align 8, !tbaa !46
  %52 = getelementptr inbounds nuw i8, ptr %51, i64 264
  %53 = load i32, ptr %52, align 8, !tbaa !80
  %.not = icmp eq i32 %53, %38
  br i1 %.not, label %54, label %57

54:                                               ; preds = %45
  %55 = getelementptr inbounds nuw i8, ptr %51, i64 268
  %56 = load i32, ptr %55, align 4, !tbaa !82
  %.not70 = icmp eq i32 %56, %40
  br i1 %.not70, label %44, label %57

57:                                               ; preds = %54, %45
  tail call void (ptr, i32, ptr, ...) @av_log(ptr noundef nonnull %2, i32 noundef 40, ptr noundef nonnull @.str.15) #8
  store i64 1, ptr %32, align 8
  %.pre = load i32, ptr %35, align 8, !tbaa !20
  br label %.loopexit

.loopexit:                                        ; preds = %44, %57
  %58 = phi i32 [ %.pre, %57 ], [ %36, %44 ]
  %59 = icmp ugt i32 %58, 1
  br i1 %59, label %.lr.ph81, label %._crit_edge

.lr.ph81:                                         ; preds = %.loopexit
  %60 = getelementptr inbounds nuw i8, ptr %2, i64 64
  %61 = getelementptr inbounds nuw i8, ptr %0, i64 52
  %62 = getelementptr inbounds nuw i8, ptr %2, i64 24
  %63 = getelementptr inbounds nuw i8, ptr %4, i64 36
  br label %64

64:                                               ; preds = %.lr.ph81, %105
  %.180 = phi i32 [ 1, %.lr.ph81 ], [ %106, %105 ]
  %65 = load ptr, ptr %14, align 8, !tbaa !50
  %66 = load i32, ptr %60, align 8, !tbaa !38
  %67 = mul i32 %66, %.180
  %68 = add i32 %67, %13
  %69 = zext i32 %68 to i64
  %70 = getelementptr inbounds nuw ptr, ptr %65, i64 %69
  %71 = load ptr, ptr %70, align 8, !tbaa !46
  %72 = load i32, ptr %26, align 8, !tbaa !83
  %.not71 = icmp eq i32 %72, 0
  br i1 %.not71, label %73, label %77

73:                                               ; preds = %64
  %74 = getelementptr inbounds nuw i8, ptr %71, i64 48
  %75 = load i64, ptr %74, align 8
  store i64 %75, ptr %26, align 8
  %76 = trunc i64 %75 to i32
  br label %77

77:                                               ; preds = %73, %64
  %78 = phi i32 [ %76, %73 ], [ %72, %64 ]
  %79 = load i32, ptr %22, align 8, !tbaa !76
  %80 = getelementptr inbounds nuw i8, ptr %71, i64 40
  %81 = load i32, ptr %80, align 8, !tbaa !76
  %.not72 = icmp eq i32 %79, %81
  br i1 %.not72, label %82, label %._crit_edge85

._crit_edge85:                                    ; preds = %77
  %.phi.trans.insert = getelementptr inbounds nuw i8, ptr %71, i64 44
  %.pre86 = load i32, ptr %.phi.trans.insert, align 4, !tbaa !77
  %.pre87 = load i32, ptr %25, align 4, !tbaa !77
  br label %93

82:                                               ; preds = %77
  %83 = load i32, ptr %25, align 4, !tbaa !77
  %84 = getelementptr inbounds nuw i8, ptr %71, i64 44
  %85 = load i32, ptr %84, align 4, !tbaa !77
  %.not73 = icmp eq i32 %83, %85
  br i1 %.not73, label %86, label %93

86:                                               ; preds = %82
  %87 = getelementptr inbounds nuw i8, ptr %71, i64 48
  %88 = load i32, ptr %87, align 8, !tbaa !83
  %.not74 = icmp eq i32 %78, %88
  %.not75 = icmp eq i32 %88, 0
  %or.cond = or i1 %.not74, %.not75
  br i1 %or.cond, label %89, label %93

89:                                               ; preds = %86
  %90 = load i32, ptr %61, align 4, !tbaa !84
  %91 = getelementptr inbounds nuw i8, ptr %71, i64 52
  %92 = load i32, ptr %91, align 4, !tbaa !84
  %.not76 = icmp eq i32 %90, %92
  br i1 %.not76, label %105, label %93

93:                                               ; preds = %._crit_edge85, %86, %89, %82
  %94 = phi i32 [ %.pre87, %._crit_edge85 ], [ %83, %86 ], [ %83, %89 ], [ %83, %82 ]
  %95 = phi i32 [ %.pre86, %._crit_edge85 ], [ %83, %86 ], [ %83, %89 ], [ %85, %82 ]
  %96 = load ptr, ptr %62, align 8, !tbaa !57
  %97 = getelementptr inbounds nuw %struct.AVFilterPad, ptr %96, i64 %16
  %98 = load ptr, ptr %97, align 8, !tbaa !30
  %99 = getelementptr inbounds nuw i8, ptr %71, i64 48
  %100 = load i32, ptr %99, align 8, !tbaa !83
  %101 = getelementptr inbounds nuw i8, ptr %71, i64 52
  %102 = load i32, ptr %101, align 4, !tbaa !84
  %103 = load i32, ptr %61, align 4, !tbaa !84
  tail call void (ptr, i32, ptr, ...) @av_log(ptr noundef nonnull %2, i32 noundef 16, ptr noundef nonnull @.str.16, ptr noundef %98, i32 noundef %81, i32 noundef %95, i32 noundef %100, i32 noundef %102, ptr noundef %98, i32 noundef %79, i32 noundef %94, i32 noundef %78, i32 noundef %103) #8
  %104 = load i32, ptr %63, align 4, !tbaa !85
  %.not77 = icmp eq i32 %104, 0
  br i1 %.not77, label %._crit_edge, label %105

105:                                              ; preds = %89, %93
  %106 = add nuw i32 %.180, 1
  %107 = load i32, ptr %35, align 8, !tbaa !20
  %108 = icmp ult i32 %106, %107
  br i1 %108, label %64, label %._crit_edge, !llvm.loop !86

._crit_edge:                                      ; preds = %93, %105, %1, %.loopexit
  %.0 = phi i32 [ 0, %.loopexit ], [ 0, %1 ], [ 0, %105 ], [ -22, %93 ]
  ret i32 %.0
}